; Function Attrs: mustprogress nofree norecurse nosync nounwind willreturn memory(read, inaccessiblemem: none) uwtable
define noundef zeroext i1 @_ZNK32pxrInternal_v0_24__pxrReserved__7SdfPath26IsPrimVariantSelectionPathEv(ptr nocapture noundef nonnull readonly align 4 dereferenceable(8) %0) local_unnamed_addr #8 align 2 personality ptr @__gxx_personality_v0 {
  %2 = getelementptr inbounds nuw i8, ptr %0, i64 4
  %3 = load i32, ptr %2, align 4
  %.not5 = icmp eq i32 %3, 0
  br i1 %.not5, label %4, label %18

4:                                                ; preds = %1
  %5 = load i32, ptr %0, align 4
  %6 = and i32 %5, 255
  %7 = zext nneg i32 %6 to i64
  %8 = getelementptr inbounds [257 x ptr], ptr @_ZN32pxrInternal_v0_24__pxrReserved__8Sdf_PoolINS_15Sdf_PathPrimTagELj24ELj8ELj16384EE13_regionStartsE, i64 0, i64 %7
  %9 = load ptr, ptr %8, align 8
  %.not = icmp eq ptr %9, null
  br i1 %.not, label %18, label %10

10:                                               ; preds = %4
  %11 = lshr i32 %5, 8
  %12 = mul nuw nsw i32 %11, 24
  %13 = zext nneg i32 %12 to i64
  %14 = getelementptr inbounds i8, ptr %9, i64 %13
  %15 = getelementptr inbounds nuw i8, ptr %14, i64 14
  %16 = load i8, ptr %15, align 2
  %17 = icmp eq i8 %16, 2
  br label %18

18:                                               ; preds = %4, %1, %10
  %.0 = phi i1 [ %17, %10 ], [ false, %1 ], [ false, %4 ]
  ret i1 %.0
}